target datalayout = "e-m:e-p270:32:32-p271:32:32-p272:64:64-i64:64-i128:128-f80:128-n8:16:32:64-S128"
target triple = "x86_64-pc-linux-gnu"

%struct.repository = type { ptr, ptr, ptr, ptr, ptr, %struct.strmap, %struct.strmap, %struct.repo_path_cache, ptr, ptr, ptr, ptr, %struct.repo_settings, ptr, ptr, ptr, ptr, ptr, ptr, i32, i32, i32, ptr, ptr, i32, i32, i8 }
%struct.strmap = type { %struct.hashmap, ptr, i8 }
%struct.hashmap = type { ptr, ptr, ptr, i32, i32, i32, i32, i8 }
%struct.repo_path_cache = type { ptr, ptr, ptr, ptr, ptr, ptr, ptr }
%struct.repo_settings = type { i32, i32, i32, i32, i32, i32, i32, i32, i32, i32, i32, i32, ptr, i32, i32, i32, i32, i32, i32, i32, i64, i64, i64 }
%struct.raw_object_store = type { ptr, ptr, ptr, i32, ptr, ptr, i8, %union.pthread_mutex_t, ptr, i8, ptr, ptr, %struct.list_head, %struct.anon, %struct.hashmap, i64, i8 }
%union.pthread_mutex_t = type { %struct.__pthread_mutex_s }
%struct.__pthread_mutex_s = type { i32, i32, i32, i32, i32, i16, i16, %struct.__pthread_internal_list }
%struct.__pthread_internal_list = type { ptr, ptr }
%struct.list_head = type { ptr, ptr }
%struct.anon = type { ptr, i32 }
%struct.object_directory = type { ptr, [8 x i32], ptr, ptr, i32, i32, ptr }

@the_repository = external global ptr, align 8
@.str.141 = private unnamed_addr constant [31 x i8] c"maintenance.loose-objects.auto\00", align 1
@loose_object_auto_limit = internal global i32 100, align 4

; Function Attrs: inlinehint nounwind uwtable
define internal i32 @git_config_get_int(ptr noundef %0, ptr noundef %1) #6 {
  %3 = alloca ptr, align 8
  %4 = alloca ptr, align 8
  store ptr %0, ptr %3, align 8, !tbaa !11
  store ptr %1, ptr %4, align 8, !tbaa !104
  %5 = load ptr, ptr @the_repository, align 8, !tbaa !13
  %6 = load ptr, ptr %3, align 8, !tbaa !11
  %7 = load ptr, ptr %4, align 8, !tbaa !104
  %8 = call i32 @repo_config_get_int(ptr noundef %5, ptr noundef %6, ptr noundef %7)
  ret i32 %8
}

; Function Attrs: nounwind uwtable
define internal i32 @loose_object_auto_condition(ptr noundef %0) #0 {
  %2 = alloca i32, align 4
  %3 = alloca ptr, align 8
  %4 = alloca i32, align 4
  %5 = alloca i32, align 4
  store ptr %0, ptr %3, align 8, !tbaa !90
  call void @llvm.lifetime.start.p0(i64 4, ptr %4) #11
  store i32 0, ptr %4, align 4, !tbaa !4
  %6 = call i32 @git_config_get_int(ptr noundef @.str.141, ptr noundef @loose_object_auto_limit)
  %7 = load i32, ptr @loose_object_auto_limit, align 4, !tbaa !4
  %8 = icmp ne i32 %7, 0
  br i1 %8, label %10, label %9

9:                                                ; preds = %1
  store i32 0, ptr %2, align 4
  store i32 1, ptr %5, align 4
  br label %23

10:                                               ; preds = %1
  %11 = load i32, ptr @loose_object_auto_limit, align 4, !tbaa !4
  %12 = icmp slt i32 %11, 0
  br i1 %12, label %13, label %14

13:                                               ; preds = %10
  store i32 1, ptr %2, align 4
  store i32 1, ptr %5, align 4
  br label %23

14:                                               ; preds = %10
  %15 = load ptr, ptr @the_repository, align 8, !tbaa !13
  %16 = getelementptr inbounds nuw %struct.repository, ptr %15, i32 0, i32 2
  %17 = load ptr, ptr %16, align 8, !tbaa !58
  %18 = getelementptr inbounds nuw %struct.raw_object_store, ptr %17, i32 0, i32 0
  %19 = load ptr, ptr %18, align 8, !tbaa !77
  %20 = getelementptr inbounds nuw %struct.object_directory, ptr %19, i32 0, i32 6
  %21 = load ptr, ptr %20, align 8, !tbaa !157
  %22 = call i32 @for_each_loose_file_in_objdir(ptr noundef %21, ptr noundef @loose_object_count, ptr noundef null, ptr noundef null, ptr noundef %4)
  store i32 %22, ptr %2, align 4
  store i32 1, ptr %5, align 4
  br label %23

23:                                               ; preds = %14, %13, %9
  call void @llvm.lifetime.end.p0(i64 4, ptr %4) #11
  %24 = load i32, ptr %2, align 4
  ret i32 %24
}