; Function Attrs: nounwind uwtable
define internal i32 @loose_object_auto_condition(ptr readnone captures(none) %0) #0 {
  %2 = alloca i32, align 4
  call void @llvm.lifetime.start.p0(i64 4, ptr nonnull %2) #21
  store i32 0, ptr %2, align 4, !tbaa !4
  %3 = load ptr, ptr @the_repository, align 8, !tbaa !42
  %4 = tail call i32 @repo_config_get_int(ptr noundef %3, ptr noundef nonnull @.str.141, ptr noundef nonnull @loose_object_auto_limit) #21
  %5 = load i32, ptr @loose_object_auto_limit, align 4, !tbaa !4
  %.not = icmp eq i32 %5, 0
  br i1 %.not, label %16, label %6

6:                                                ; preds = %1
  %7 = icmp slt i32 %5, 0
  br i1 %7, label %16, label %8

8:                                                ; preds = %6
  %9 = load ptr, ptr @the_repository, align 8, !tbaa !42
  %10 = getelementptr inbounds nuw i8, ptr %9, i64 16
  %11 = load ptr, ptr %10, align 8, !tbaa !65
  %12 = load ptr, ptr %11, align 8, !tbaa !88
  %13 = getelementptr inbounds nuw i8, ptr %12, i64 64
  %14 = load ptr, ptr %13, align 8, !tbaa !123
  %15 = call i32 @for_each_loose_file_in_objdir(ptr noundef %14, ptr noundef nonnull @loose_object_count, ptr noundef null, ptr noundef null, ptr noundef nonnull %2) #21
  br label %16

16:                                               ; preds = %6, %1, %8
  %.0 = phi i32 [ %15, %8 ], [ 0, %1 ], [ 1, %6 ]
  call void @llvm.lifetime.end.p0(i64 4, ptr nonnull %2) #21
  ret i32 %.0
}